target datalayout = "e-m:e-p270:32:32-p271:32:32-p272:64:64-i64:64-i128:128-f80:128-n8:16:32:64-S128"
target triple = "x86_64-pc-linux-gnu"

%"class.icu_77::FieldPositionIterator" = type <{ %"class.icu_77::UObject", ptr, i32, [4 x i8] }>
%"class.icu_77::UObject" = type { ptr }

@_ZTVN6icu_7721FieldPositionIteratorE = unnamed_addr constant { [5 x ptr] } { [5 x ptr] [ptr null, ptr @_ZTIN6icu_7721FieldPositionIteratorE, ptr @_ZN6icu_7721FieldPositionIteratorD1Ev, ptr @_ZN6icu_7721FieldPositionIteratorD0Ev, ptr @_ZNK6icu_777UObject17getDynamicClassIDEv] }, align 8
@_ZTVN6icu_777UObjectE = available_externally unnamed_addr constant { [5 x ptr] } { [5 x ptr] [ptr null, ptr @_ZTIN6icu_777UObjectE, ptr @_ZN6icu_777UObjectD1Ev, ptr @_ZN6icu_777UObjectD0Ev, ptr @_ZNK6icu_777UObject17getDynamicClassIDEv] }, align 8

; Function Attrs: inlinehint mustprogress nounwind uwtable
define linkonce_odr void @_ZN6icu_777UObjectC2ERKS0_(ptr noundef nonnull align 8 dereferenceable(8) %0, ptr noundef nonnull align 8 dereferenceable(8) %1) unnamed_addr #2 comdat align 2 {
  %3 = alloca ptr, align 8
  %4 = alloca ptr, align 8
  store ptr %0, ptr %3, align 8, !tbaa !16
  store ptr %1, ptr %4, align 8, !tbaa !16
  %5 = load ptr, ptr %3, align 8
  store ptr getelementptr inbounds inrange(-16, 24) ({ [5 x ptr] }, ptr @_ZTVN6icu_777UObjectE, i32 0, i32 0, i32 2), ptr %5, align 8, !tbaa !8
  ret void
}

; Function Attrs: mustprogress uwtable
define void @_ZN6icu_7721FieldPositionIteratorC2ERKS0_(ptr noundef nonnull align 8 dereferenceable(20) %0, ptr noundef nonnull align 8 dereferenceable(20) %1) unnamed_addr #3 align 2 personality ptr @__gxx_personality_v0 {
  %3 = alloca ptr, align 8
  %4 = alloca ptr, align 8
  %5 = alloca i32, align 4
  %6 = alloca ptr, align 8
  %7 = alloca i1, align 1
  %8 = alloca ptr, align 8
  %9 = alloca i32, align 4
  store ptr %0, ptr %3, align 8, !tbaa !3
  store ptr %1, ptr %4, align 8, !tbaa !3
  %10 = load ptr, ptr %3, align 8
  %11 = load ptr, ptr %4, align 8, !tbaa !3
  call void @_ZN6icu_777UObjectC2ERKS0_(ptr noundef nonnull align 8 dereferenceable(8) %10, ptr noundef nonnull align 8 dereferenceable(8) %11) #6
  store ptr getelementptr inbounds inrange(-16, 24) ({ [5 x ptr] }, ptr @_ZTVN6icu_7721FieldPositionIteratorE, i32 0, i32 0, i32 2), ptr %10, align 8, !tbaa !8
  %12 = getelementptr inbounds nuw %"class.icu_77::FieldPositionIterator", ptr %10, i32 0, i32 1
  store ptr null, ptr %12, align 8, !tbaa !10
  %13 = getelementptr inbounds nuw %"class.icu_77::FieldPositionIterator", ptr %10, i32 0, i32 2
  %14 = load ptr, ptr %4, align 8, !tbaa !3
  %15 = getelementptr inbounds nuw %"class.icu_77::FieldPositionIterator", ptr %14, i32 0, i32 2
  %16 = load i32, ptr %15, align 8, !tbaa !15
  store i32 %16, ptr %13, align 8, !tbaa !15
  %17 = load ptr, ptr %4, align 8, !tbaa !3
  %18 = getelementptr inbounds nuw %"class.icu_77::FieldPositionIterator", ptr %17, i32 0, i32 1
  %19 = load ptr, ptr %18, align 8, !tbaa !10
  %20 = icmp ne ptr %19, null
  br i1 %20, label %21, label %62

21:                                               ; preds = %2
  call void @llvm.lifetime.start.p0(i64 4, ptr %5) #6
  store i32 0, ptr %5, align 4, !tbaa !18
  %22 = call noundef ptr @_ZN6icu_777UMemorynwEm(i64 noundef 32) #6
  %23 = icmp eq ptr %22, null
  store i1 false, ptr %7, align 1
  br i1 %23, label %26, label %24

24:                                               ; preds = %21
  store ptr %22, ptr %6, align 8
  store i1 true, ptr %7, align 1
  invoke void @_ZN6icu_779UVector32C1ER10UErrorCode(ptr noundef nonnull align 8 dereferenceable(32) %22, ptr noundef nonnull align 4 dereferenceable(4) %5)
          to label %25 unwind label %48

25:                                               ; preds = %24
  br label %26

26:                                               ; preds = %25, %21
  %27 = phi ptr [ %22, %25 ], [ null, %21 ]
  %28 = getelementptr inbounds nuw %"class.icu_77::FieldPositionIterator", ptr %10, i32 0, i32 1
  store ptr %27, ptr %28, align 8, !tbaa !10
  %29 = getelementptr inbounds nuw %"class.icu_77::FieldPositionIterator", ptr %10, i32 0, i32 1
  %30 = load ptr, ptr %29, align 8, !tbaa !10
  %31 = load ptr, ptr %4, align 8, !tbaa !3
  %32 = getelementptr inbounds nuw %"class.icu_77::FieldPositionIterator", ptr %31, i32 0, i32 1
  %33 = load ptr, ptr %32, align 8, !tbaa !10
  invoke void @_ZN6icu_779UVector326assignERKS0_R10UErrorCode(ptr noundef nonnull align 8 dereferenceable(32) %30, ptr noundef nonnull align 8 dereferenceable(32) %33, ptr noundef nonnull align 4 dereferenceable(4) %5)
          to label %34 unwind label %56

34:                                               ; preds = %26
  %35 = load i32, ptr %5, align 4, !tbaa !18
  %36 = icmp ne i32 %35, 0
  br i1 %36, label %37, label %60

37:                                               ; preds = %34
  %38 = getelementptr inbounds nuw %"class.icu_77::FieldPositionIterator", ptr %10, i32 0, i32 1
  %39 = load ptr, ptr %38, align 8, !tbaa !10
  %40 = icmp eq ptr %39, null
  br i1 %40, label %45, label %41

41:                                               ; preds = %37
  %42 = load ptr, ptr %39, align 8, !tbaa !8
  %43 = getelementptr inbounds ptr, ptr %42, i64 1
  %44 = load ptr, ptr %43, align 8
  call void %44(ptr noundef nonnull align 8 dereferenceable(32) %39) #6
  br label %45

45:                                               ; preds = %41, %37
  %46 = getelementptr inbounds nuw %"class.icu_77::FieldPositionIterator", ptr %10, i32 0, i32 1
  store ptr null, ptr %46, align 8, !tbaa !10
  %47 = getelementptr inbounds nuw %"class.icu_77::FieldPositionIterator", ptr %10, i32 0, i32 2
  store i32 -1, ptr %47, align 8, !tbaa !15
  br label %60

48:                                               ; preds = %24
  %49 = landingpad { ptr, i32 }
          cleanup
  %50 = extractvalue { ptr, i32 } %49, 0
  store ptr %50, ptr %8, align 8
  %51 = extractvalue { ptr, i32 } %49, 1
  store i32 %51, ptr %9, align 4
  %52 = load i1, ptr %7, align 1
  br i1 %52, label %53, label %55

53:                                               ; preds = %48
  %54 = load ptr, ptr %6, align 8
  call void @_ZN6icu_777UMemorydlEPv(ptr noundef %54) #6
  br label %55

55:                                               ; preds = %53, %48
  br label %61

56:                                               ; preds = %26
  %57 = landingpad { ptr, i32 }
          cleanup
  %58 = extractvalue { ptr, i32 } %57, 0
  store ptr %58, ptr %8, align 8
  %59 = extractvalue { ptr, i32 } %57, 1
  store i32 %59, ptr %9, align 4
  br label %61

60:                                               ; preds = %45, %34
  call void @llvm.lifetime.end.p0(i64 4, ptr %5) #6
  br label %62

61:                                               ; preds = %56, %55
  call void @llvm.lifetime.end.p0(i64 4, ptr %5) #6
  call void @_ZN6icu_777UObjectD2Ev(ptr noundef nonnull align 8 dereferenceable(8) %10) #6
  br label %63

62:                                               ; preds = %60, %2
  ret void

63:                                               ; preds = %61
  %64 = load ptr, ptr %8, align 8
  %65 = load i32, ptr %9, align 4
  %66 = insertvalue { ptr, i32 } poison, ptr %64, 0
  %67 = insertvalue { ptr, i32 } %66, i32 %65, 1
  resume { ptr, i32 } %67
}