; Function Attrs: mustprogress uwtable
define void @_ZN6icu_7721FieldPositionIteratorC2ERKS0_(ptr noundef nonnull align 8 dereferenceable(20) initializes((0, 20)) %0, ptr noundef nonnull readonly align 8 captures(none) dereferenceable(20) %1) unnamed_addr #3 align 2 personality ptr @__gxx_personality_v0 {
  %3 = alloca i32, align 4
  store ptr getelementptr inbounds nuw inrange(-16, 24) (i8, ptr @_ZTVN6icu_7721FieldPositionIteratorE, i64 16), ptr %0, align 8, !tbaa !3
  %4 = getelementptr inbounds nuw i8, ptr %0, i64 8
  store ptr null, ptr %4, align 8, !tbaa !6
  %5 = getelementptr inbounds nuw i8, ptr %0, i64 16
  %6 = getelementptr inbounds nuw i8, ptr %1, i64 16
  %7 = load i32, ptr %6, align 8, !tbaa !13
  store i32 %7, ptr %5, align 8, !tbaa !13
  %8 = getelementptr inbounds nuw i8, ptr %1, i64 8
  %9 = load ptr, ptr %8, align 8, !tbaa !6
  %.not = icmp eq ptr %9, null
  br i1 %.not, label %31, label %10

10:                                               ; preds = %2
  call void @llvm.lifetime.start.p0(i64 4, ptr nonnull %3) #8
  store i32 0, ptr %3, align 4, !tbaa !14
  %11 = tail call noundef ptr @_ZN6icu_777UMemorynwEm(i64 noundef 32) #8
  %12 = icmp ne ptr %11, null
  tail call void @llvm.assume(i1 %12)
  invoke void @_ZN6icu_779UVector32C1ER10UErrorCode(ptr noundef nonnull align 8 dereferenceable(32) %11, ptr noundef nonnull align 4 dereferenceable(4) %3)
          to label %13 unwind label %25

13:                                               ; preds = %10
  store ptr %11, ptr %4, align 8, !tbaa !6
  %14 = load ptr, ptr %8, align 8, !tbaa !6
  invoke void @_ZN6icu_779UVector326assignERKS0_R10UErrorCode(ptr noundef nonnull align 8 dereferenceable(32) %11, ptr noundef nonnull align 8 dereferenceable(32) %14, ptr noundef nonnull align 4 dereferenceable(4) %3)
          to label %15 unwind label %27

15:                                               ; preds = %13
  %16 = load i32, ptr %3, align 4, !tbaa !14
  %.not12 = icmp eq i32 %16, 0
  br i1 %.not12, label %29, label %17

17:                                               ; preds = %15
  %18 = load ptr, ptr %4, align 8, !tbaa !6
  %19 = icmp eq ptr %18, null
  br i1 %19, label %24, label %20

20:                                               ; preds = %17
  %21 = load ptr, ptr %18, align 8, !tbaa !3
  %22 = getelementptr inbounds nuw i8, ptr %21, i64 8
  %23 = load ptr, ptr %22, align 8
  call void %23(ptr noundef nonnull align 8 dereferenceable(32) %18) #8
  br label %24

24:                                               ; preds = %20, %17
  store ptr null, ptr %4, align 8, !tbaa !6
  store i32 -1, ptr %5, align 8, !tbaa !13
  br label %29

25:                                               ; preds = %10
  %26 = landingpad { ptr, i32 }
          cleanup
  call void @_ZN6icu_777UMemorydlEPv(ptr noundef nonnull %11) #8
  br label %30

27:                                               ; preds = %13
  %28 = landingpad { ptr, i32 }
          cleanup
  br label %30

29:                                               ; preds = %24, %15
  call void @llvm.lifetime.end.p0(i64 4, ptr nonnull %3) #8
  br label %31

30:                                               ; preds = %25, %27
  %.pn = phi { ptr, i32 } [ %28, %27 ], [ %26, %25 ]
  call void @llvm.lifetime.end.p0(i64 4, ptr nonnull %3) #8
  call void @_ZN6icu_777UObjectD2Ev(ptr noundef nonnull align 8 dereferenceable(8) %0) #8
  resume { ptr, i32 } %.pn

31:                                               ; preds = %29, %2
  ret void
}